(lp1
ccopy_reg
_reconstructor
p2
(camr_graph
AMRGraph
p3
c__builtin__
object
p4
NtRp5
(dp6
S'edge_dict'
p7
(dp8
g2
(camr_graph
AMREdge
p9
g4
NtRp10
(dp11
S'is_coref'
p12
I00
sS'graph'
p13
g5
sS'head'
p14
I24
sS'tail'
p15
NsS'label'
p16
S'c11'
p17
sbI24
sg2
(g9
g4
NtRp18
(dp19
g12
I00
sg13
g5
sg14
I10
sg15
I46
sg16
S'op1'
p20
sbI65
sg2
(g9
g4
NtRp21
(dp22
g12
I00
sg13
g5
sg14
I25
sg15
Nsg16
S'p3'
p23
sbI25
sg2
(g9
g4
NtRp24
(dp25
g12
I00
sg13
g5
sg14
I37
sg15
I39
sg16
S'op2'
p26
sbI102
sg2
(g9
g4
NtRp27
(dp28
g12
I00
sg13
g5
sg14
I47
sg15
Nsg16
S'States'
p29
sbI66
sg2
(g9
g4
NtRp30
(dp31
g12
I00
sg13
g5
sg14
I26
sg15
Nsg16
S'e5'
p32
sbI26
sg2
(g9
g4
NtRp33
(dp34
g12
I00
sg13
g5
sg14
I11
sg15
I12
sg16
S'poss'
p35
sbI68
sg2
(g9
g4
NtRp36
(dp37
g12
I00
sg13
g5
sg14
I27
sg15
Nsg16
S'a5'
p38
sbI27
sg2
(g9
g4
NtRp39
(dp40
g12
I00
sg13
g5
sg14
I46
sg15
Nsg16
S'United'
p41
sbI64
sg2
(g9
g4
NtRp42
(dp43
g12
I00
sg13
g5
sg14
I28
sg15
Nsg16
S'i2'
p44
sbI28
sg2
(g9
g4
NtRp45
(dp46
g12
I00
sg13
g5
sg14
I37
sg15
I40
sg16
S'op3'
p47
sbI103
sg2
(g9
g4
NtRp48
(dp49
g12
I00
sg13
g5
sg14
I13
sg15
I48
sg16
S'op1'
p50
sbI71
sg2
(g9
g4
NtRp51
(dp52
g12
I00
sg13
g5
sg14
I29
sg15
Nsg16
S'c12'
p53
sbI29
sg2
(g9
g4
NtRp54
(dp55
g12
I00
sg13
g5
sg14
I21
sg15
I22
sg16
S'op1'
p56
sbI82
sg2
(g9
g4
NtRp57
(dp58
g12
I00
sg13
g5
sg14
I15
sg15
I16
sg16
S'name'
p59
sbI73
sg2
(g9
g4
NtRp60
(dp61
g12
I00
sg13
g5
sg14
I30
sg15
Nsg16
S'p4'
p62
sbI30
sg2
(g9
g4
NtRp63
(dp64
g12
I00
sg13
g5
sg14
I49
sg15
Nsg16
S'Australia'
p65
sbI74
sg2
(g9
g4
NtRp66
(dp67
g12
I00
sg13
g5
sg14
I16
sg15
I49
sg16
S'op1'
p68
sbI75
sg2
(g9
g4
NtRp69
(dp70
g12
I01
sg13
g5
sg14
I37
sg15
I18
sg16
S'poss'
p71
sbI104
sg2
(g9
g4
NtRp72
(dp73
g12
I00
sg13
g5
sg14
I17
sg15
I18
sg16
S'poss'
p74
sbI76
sg2
(g9
g4
NtRp75
(dp76
g12
I00
sg13
g5
sg14
I18
sg15
I19
sg16
S'name'
p77
sbI77
sg2
(g9
g4
NtRp78
(dp79
g12
I00
sg13
g5
sg14
I50
sg15
Nsg16
S'Norway'
p80
sbI78
sg2
(g9
g4
NtRp81
(dp82
g12
I00
sg13
g5
sg14
I19
sg15
I50
sg16
S'op1'
p83
sbI79
sg2
(g9
g4
NtRp84
(dp85
g12
I00
sg13
g5
sg14
I34
sg15
Nsg16
S'c13'
p86
sbI34
sg2
(g9
g4
NtRp87
(dp88
g12
I00
sg13
g5
sg14
I40
sg15
I41
sg16
S'ARG1-of'
p89
sbI105
sg2
(g9
g4
NtRp90
(dp91
g12
I00
sg13
g5
sg14
I20
sg15
I21
sg16
S'ARG1'
p92
sbI81
sg2
(g9
g4
NtRp93
(dp94
g12
I00
sg13
g5
sg14
I35
sg15
Nsg16
S'p5'
p95
sbI35
sg2
(g9
g4
NtRp96
(dp97
g12
I00
sg13
g5
sg14
I36
sg15
Nsg16
S'e7'
p98
sbI36
sg2
(g9
g4
NtRp99
(dp100
g12
I00
sg13
g5
sg14
I21
sg15
I27
sg16
S'op2'
p101
sbI83
sg2
(g9
g4
NtRp102
(dp103
g12
I00
sg13
g5
sg14
I21
sg15
I32
sg16
S'op3'
p104
sbI84
sg2
(g9
g4
NtRp105
(dp106
g12
I00
sg13
g5
sg14
I21
sg15
I37
sg16
S'op4'
p107
sbI85
sg2
(g9
g4
NtRp108
(dp109
g12
I00
sg13
g5
sg14
I37
sg15
Nsg16
S'a7'
p110
sbI37
sg2
(g9
g4
NtRp111
(dp112
g12
I00
sg13
g5
sg14
I42
sg15
I43
sg16
S'mod'
p113
sbI106
sg2
(g9
g4
NtRp114
(dp115
g12
I00
sg13
g5
sg14
I22
sg15
I24
sg16
S'op2'
p116
sbI87
sg2
(g9
g4
NtRp117
(dp118
g12
I00
sg13
g5
sg14
I38
sg15
Nsg16
S'i4'
p119
sbI38
sg2
(g9
g4
NtRp120
(dp121
g12
I01
sg13
g5
sg14
I22
sg15
I9
sg16
S'poss'
p122
sbI89
sg2
(g9
g4
NtRp123
(dp124
g12
I00
sg13
g5
sg14
I39
sg15
Nsg16
S'c14'
p125
sbI39
sg2
(g9
g4
NtRp126
(dp127
g12
I00
sg13
g5
sg14
I10
sg15
I47
sg16
S'op2'
p128
sbI67
sg2
(g9
g4
NtRp129
(dp130
g12
I00
sg13
g5
sg14
I27
sg15
I28
sg16
S'op1'
p131
sbI91
sg2
(g9
g4
NtRp132
(dp133
g12
I00
sg13
g5
sg14
I40
sg15
Nsg16
S'p6'
p134
sbI40
sg2
(g9
g4
NtRp135
(dp136
g12
I00
sg13
g5
sg14
I43
sg15
I44
sg16
S'name'
p137
sbI107
sg2
(g9
g4
NtRp138
(dp139
g12
I00
sg13
g5
sg14
I27
sg15
I30
sg16
S'op3'
p140
sbI93
sg2
(g9
g4
NtRp141
(dp142
g12
I00
sg13
g5
sg14
I41
sg15
Nsg16
S'e8'
p143
sbI41
sg2
(g9
g4
NtRp144
(dp145
g12
I00
sg13
g5
sg14
I22
sg15
I23
sg16
S'op1'
p146
sbI86
sg2
(g9
g4
NtRp147
(dp148
g12
I00
sg13
g5
sg14
I30
sg15
I31
sg16
S'ARG1-of'
p149
sbI95
sg2
(g9
g4
NtRp150
(dp151
g12
I00
sg13
g5
sg14
I42
sg15
Nsg16
S'p2'
p152
sbI42
sg2
(g9
g4
NtRp153
(dp154
g12
I00
sg13
g5
sg14
I32
sg15
I34
sg16
S'op2'
p155
sbI97
sg2
(g9
g4
NtRp156
(dp157
g12
I00
sg13
g5
sg14
I43
sg15
Nsg16
S'r'
sbI43
sg2
(g9
g4
NtRp158
(dp159
g12
I01
sg13
g5
sg14
I32
sg15
I15
sg16
S'poss'
p160
sbI99
sg2
(g9
g4
NtRp161
(dp162
g12
I00
sg13
g5
sg14
I44
sg15
Nsg16
S'n9'
p163
sbI44
sg2
(g9
g4
NtRp164
(dp165
g12
I00
sg13
g5
sg14
I37
sg15
I38
sg16
S'op1'
p166
sbI101
sg2
(g9
g4
NtRp167
(dp168
g12
I00
sg13
g5
sg14
I0
sg15
I1
sg16
S'ARG0'
p169
sbI45
sg2
(g9
g4
NtRp170
(dp171
g12
I00
sg13
g5
sg14
I12
sg15
I13
sg16
S'name'
p172
sbI69
sg2
(g9
g4
NtRp173
(dp174
g12
I00
sg13
g5
sg14
I0
sg15
I3
sg16
S'ARG1'
p175
sbI46
sg2
(g9
g4
NtRp176
(dp177
g12
I00
sg13
g5
sg14
I0
sg15
I42
sg16
S'ARG2'
p178
sbI47
sg2
(g9
g4
NtRp179
(dp180
g12
I00
sg13
g5
sg14
I51
sg15
Nsg16
S'Muslim'
p181
sbI108
sg2
(g9
g4
NtRp182
(dp183
g12
I00
sg13
g5
sg14
I1
sg15
I2
sg16
S'ARG0-of'
p184
sbI48
sg2
(g9
g4
NtRp185
(dp186
g12
I00
sg13
g5
sg14
I3
sg15
I4
sg16
S'op1'
p187
sbI49
sg2
(g9
g4
NtRp188
(dp189
g12
I00
sg13
g5
sg14
I22
sg15
I25
sg16
S'op3'
p190
sbI88
sg2
(g9
g4
NtRp191
(dp192
g12
I00
sg13
g5
sg14
I3
sg15
I6
sg16
S'op2'
p193
sbI50
sg2
(g9
g4
NtRp194
(dp195
g12
I00
sg13
g5
sg14
I3
sg15
I20
sg16
S'op3'
p196
sbI51
sg2
(g9
g4
NtRp197
(dp198
g12
I01
sg13
g5
sg14
I4
sg15
I42
sg16
S'ARG0'
p199
sbI52
sg2
(g9
g4
NtRp200
(dp201
g12
I00
sg13
g5
sg14
I4
sg15
I5
sg16
S'ARG1'
p202
sbI53
sg2
(g9
g4
NtRp203
(dp204
g12
I00
sg13
g5
sg14
I44
sg15
I51
sg16
S'op1'
p205
sbI109
sg2
(g9
g4
NtRp206
(dp207
g12
I00
sg13
g5
sg14
I45
sg15
Nsg16
S'p2'
p208
sbI54
sg2
(g9
g4
NtRp209
(dp210
g12
I00
sg13
g5
sg14
I5
sg15
I45
sg16
S'ARG0'
p211
sbI55
sg2
(g9
g4
NtRp212
(dp213
g12
I01
sg13
g5
sg14
I6
sg15
I42
sg16
S'ARG0'
p214
sbI56
sg2
(g9
g4
NtRp215
(dp216
g12
I00
sg13
g5
sg14
I48
sg15
Nsg16
S'England'
p217
sbI70
sg2
(g9
g4
NtRp218
(dp219
g12
I00
sg13
g5
sg14
I6
sg15
I7
sg16
S'ARG1'
p220
sbI57
sg2
(g9
g4
NtRp221
(dp222
g12
I00
sg13
g5
sg14
I7
sg15
I8
sg16
S'op1'
p223
sbI58
sg2
(g9
g4
NtRp224
(dp225
g12
I00
sg13
g5
sg14
I7
sg15
I11
sg16
S'op2'
p226
sbI59
sg2
(g9
g4
NtRp227
(dp228
g12
I00
sg13
g5
sg14
I7
sg15
I14
sg16
S'op3'
p229
sbI60
sg2
(g9
g4
NtRp230
(dp231
g12
I00
sg13
g5
sg14
I25
sg15
I26
sg16
S'ARG1-of'
p232
sbI90
sg2
(g9
g4
NtRp233
(dp234
g12
I00
sg13
g5
sg14
I7
sg15
I17
sg16
S'op4'
p235
sbI61
sg2
(g9
g4
NtRp236
(dp237
g12
I00
sg13
g5
sg14
I8
sg15
I9
sg16
S'poss'
p238
sbI62
sg2
(g9
g4
NtRp239
(dp240
g12
I00
sg13
g5
sg14
I9
sg15
I10
sg16
S'name'
p241
sbI63
sg2
(g9
g4
NtRp242
(dp243
g12
I00
sg13
g5
sg14
I14
sg15
I15
sg16
S'poss'
p244
sbI72
sg2
(g9
g4
NtRp245
(dp246
g12
I00
sg13
g5
sg14
I27
sg15
I29
sg16
S'op2'
p247
sbI92
sg2
(g9
g4
NtRp248
(dp249
g12
I00
sg13
g5
sg14
I0
sg15
Nsg16
S'c9'
p250
sbI0
sg2
(g9
g4
NtRp251
(dp252
g12
I00
sg13
g5
sg14
I1
sg15
Nsg16
S'p'
sbI1
sg2
(g9
g4
NtRp253
(dp254
g12
I01
sg13
g5
sg14
I27
sg15
I12
sg16
S'poss'
p255
sbI94
sg2
(g9
g4
NtRp256
(dp257
g12
I00
sg13
g5
sg14
I2
sg15
Nsg16
S's'
sbI2
sg2
(g9
g4
NtRp258
(dp259
g12
I00
sg13
g5
sg14
I3
sg15
Nsg16
S'a'
sbI3
sg2
(g9
g4
NtRp260
(dp261
g12
I00
sg13
g5
sg14
I4
sg15
Nsg16
S'm'
sbI4
sg2
(g9
g4
NtRp262
(dp263
g12
I00
sg13
g5
sg14
I5
sg15
Nsg16
S'r2'
p264
sbI5
sg2
(g9
g4
NtRp265
(dp266
g12
I00
sg13
g5
sg14
I31
sg15
Nsg16
S'e6'
p267
sbI31
sg2
(g9
g4
NtRp268
(dp269
g12
I00
sg13
g5
sg14
I6
sg15
Nsg16
S'h'
sbI6
sg2
(g9
g4
NtRp270
(dp271
g12
I00
sg13
g5
sg14
I7
sg15
Nsg16
S'a2'
p272
sbI7
sg2
(g9
g4
NtRp273
(dp274
g12
I00
sg13
g5
sg14
I32
sg15
I33
sg16
S'op1'
p275
sbI96
sg2
(g9
g4
NtRp276
(dp277
g12
I00
sg13
g5
sg14
I8
sg15
Nsg16
S'e'
sbI8
sg2
(g9
g4
NtRp278
(dp279
g12
I00
sg13
g5
sg14
I9
sg15
Nsg16
S'c10'
p280
sbI9
sg2
(g9
g4
NtRp281
(dp282
g12
I00
sg13
g5
sg14
I10
sg15
Nsg16
S'n10'
p283
sbI10
sg2
(g9
g4
NtRp284
(dp285
g12
I00
sg13
g5
sg14
I11
sg15
Nsg16
S'e2'
p286
sbI11
sg2
(g9
g4
NtRp287
(dp288
g12
I00
sg13
g5
sg14
I32
sg15
Nsg16
S'a6'
p289
sbI32
sg2
(g9
g4
NtRp290
(dp291
g12
I00
sg13
g5
sg14
I12
sg15
Nsg16
S'c2'
p292
sbI12
sg2
(g9
g4
NtRp293
(dp294
g12
I00
sg13
g5
sg14
I13
sg15
Nsg16
S'n2'
p295
sbI13
sg2
(g9
g4
NtRp296
(dp297
g12
I00
sg13
g5
sg14
I32
sg15
I35
sg16
S'op3'
p298
sbI98
sg2
(g9
g4
NtRp299
(dp300
g12
I00
sg13
g5
sg14
I14
sg15
Nsg16
S'e3'
p301
sbI14
sg2
(g9
g4
NtRp302
(dp303
g12
I00
sg13
g5
sg14
I15
sg15
Nsg16
S'c3'
p304
sbI15
sg2
(g9
g4
NtRp305
(dp306
g12
I00
sg13
g5
sg14
I16
sg15
Nsg16
S'n3'
p307
sbI16
sg2
(g9
g4
NtRp308
(dp309
g12
I00
sg13
g5
sg14
I17
sg15
Nsg16
S'e4'
p310
sbI17
sg2
(g9
g4
NtRp311
(dp312
g12
I00
sg13
g5
sg14
I33
sg15
Nsg16
S'i3'
p313
sbI33
sg2
(g9
g4
NtRp314
(dp315
g12
I00
sg13
g5
sg14
I18
sg15
Nsg16
S'c4'
p316
sbI18
sg2
(g9
g4
NtRp317
(dp318
g12
I00
sg13
g5
sg14
I19
sg15
Nsg16
S'n4'
p319
sbI19
sg2
(g9
g4
NtRp320
(dp321
g12
I00
sg13
g5
sg14
I35
sg15
I36
sg16
S'ARG1-of'
p322
sbI100
sg2
(g9
g4
NtRp323
(dp324
g12
I00
sg13
g5
sg14
I20
sg15
Nsg16
S's2'
p325
sbI20
sg2
(g9
g4
NtRp326
(dp327
g12
I00
sg13
g5
sg14
I21
sg15
Nsg16
S'a3'
p328
sbI21
sg2
(g9
g4
NtRp329
(dp330
g12
I00
sg13
g5
sg14
I22
sg15
Nsg16
S'a4'
p331
sbI22
sg2
(g9
g4
NtRp332
(dp333
g12
I00
sg13
g5
sg14
I23
sg15
Nsg16
S'i'
sbI23
sg2
(g9
g4
NtRp334
(dp335
g12
I01
sg13
g5
sg14
I20
sg15
I42
sg16
S'ARG0'
p336
sbI80
ssS'edges'
p337
(lp338
g248
ag251
ag256
ag258
ag260
ag262
ag268
ag270
ag276
ag278
ag281
ag284
ag290
ag293
ag299
ag302
ag305
ag308
ag314
ag317
ag323
ag326
ag329
ag332
ag10
ag21
ag30
ag36
ag42
ag51
ag60
ag265
ag287
ag311
ag84
ag93
ag96
ag108
ag117
ag123
ag132
ag141
ag150
ag156
ag161
ag167
ag173
ag176
ag182
ag185
ag191
ag194
ag197
ag200
ag206
ag209
ag212
ag218
ag221
ag224
ag227
ag233
ag236
ag239
ag39
ag18
ag27
ag126
ag33
ag170
ag215
ag48
ag242
ag57
ag63
ag66
ag72
ag75
ag78
ag81
ag334
ag90
ag54
ag99
ag102
ag105
ag144
ag114
ag188
ag120
ag230
ag129
ag245
ag138
ag253
ag147
ag273
ag153
ag296
ag158
ag320
ag164
ag24
ag45
ag69
ag87
ag111
ag135
ag179
ag203
asS'dict'
p339
(dp340
g283
S'name'
p341
sg32
S'employ-01'
p342
sg292
S'country'
p343
sg163
S'name'
p344
sg325
S'strike-01'
p345
sg86
S'company'
p346
sg53
S'company'
p347
sg17
S'company'
p348
sg280
S'country'
p349
sg134
S'person'
p350
sg125
S'company'
p351
sg152
S'person'
p352
sg313
S'interest'
p353
sg44
S'interest'
p354
sg119
S'interest'
p355
sg250
S'call-03'
p356
sg272
S'and'
p357
sg38
S'and'
p358
sg331
S'and'
p359
sg110
S'and'
p360
sg289
S'and'
p361
sg304
S'country'
p362
sg310
S'embassy'
p363
sg98
S'employ-01'
p364
sg267
S'employ-01'
p365
sg301
S'embassy'
p366
sg316
S'country'
p367
sS'a'
S'and'
p368
sg23
S'person'
p369
sS'e'
S'embassy'
p370
sg62
S'person'
p371
sg264
S'resolve-01'
p372
sg95
S'person'
p373
sS'i'
S'interest'
p374
sS'h'
S'hit-01'
p375
sS'm'
S'muster-01'
p376
sg328
S'and'
p377
sS'p'
S'person'
p378
sS's'
S'speak-01'
p379
sS'r'
S'religious-group'
p380
sg295
S'name'
p381
sg307
S'name'
p382
sg319
S'name'
p383
sg286
S'embassy'
p384
sg143
S'employ-01'
p385
ssS'node_dict'
p386
(dp387
g2
(camr_graph
AMRNode
p388
g4
NtRp389
(dp390
S'p_edges'
p391
(lp392
I103
asS'is_const'
p393
I00
sS'use_quote'
p394
I00
sS'v_edges'
p395
(lp396
I105
asg13
g5
sS'has_reentrance'
p397
I00
sS'c_edge'
p398
I40
sbI40
sg2
(g388
g4
NtRp399
(dp400
g391
(lp401
I62
aI89
asg393
I00
sg394
I00
sg395
(lp402
I63
asg13
g5
sg397
I00
sg398
I9
sbI9
sg2
(g388
g4
NtRp403
(dp404
g391
(lp405
I88
asg393
I00
sg394
I00
sg395
(lp406
I90
asg13
g5
sg397
I00
sg398
I25
sbI25
sg2
(g388
g4
NtRp407
(dp408
g391
(lp409
I67
asg393
I01
sg394
I01
sg395
(lp410
sg13
g5
sg397
I00
sg398
I66
sbI47
sg2
(g388
g4
NtRp411
(dp412
g391
(lp413
I63
asg393
I00
sg394
I00
sg395
(lp414
I65
aI67
asg13
g5
sg397
I00
sg398
I10
sbI10
sg2
(g388
g4
NtRp415
(dp416
g391
(lp417
I82
asg393
I00
sg394
I00
sg395
(lp418
I86
aI87
aI88
aI89
asg13
g5
sg397
I00
sg398
I22
sbI22
sg2
(g388
g4
NtRp419
(dp420
g391
(lp421
I90
asg393
I00
sg394
I00
sg395
(lp422
sg13
g5
sg397
I00
sg398
I26
sbI26
sg2
(g388
g4
NtRp423
(dp424
g391
(lp425
I59
asg393
I00
sg394
I00
sg395
(lp426
I68
asg13
g5
sg397
I00
sg398
I11
sbI11
sg2
(g388
g4
NtRp427
(dp428
g391
(lp429
I79
asg393
I01
sg394
I01
sg395
(lp430
sg13
g5
sg397
I00
sg398
I78
sbI50
sg2
(g388
g4
NtRp431
(dp432
g391
(lp433
I106
asg393
I00
sg394
I00
sg395
(lp434
I107
asg13
g5
sg397
I00
sg398
I43
sbI43
sg2
(g388
g4
NtRp435
(dp436
g391
(lp437
I68
aI94
asg393
I00
sg394
I00
sg395
(lp438
I69
asg13
g5
sg397
I00
sg398
I12
sbI12
sg2
(g388
g4
NtRp439
(dp440
g391
(lp441
I83
asg393
I00
sg394
I00
sg395
(lp442
I91
aI92
aI93
aI94
asg13
g5
sg397
I00
sg398
I27
sbI27
sg2
(g388
g4
NtRp443
(dp444
g391
(lp445
sg393
I00
sg394
I00
sg395
(lp446
I45
aI46
aI47
asg13
g5
sg397
I00
sg398
I0
sbI0
sg2
(g388
g4
NtRp447
(dp448
g391
(lp449
I45
asg393
I00
sg394
I00
sg395
(lp450
I48
asg13
g5
sg397
I00
sg398
I1
sbI1
sg2
(g388
g4
NtRp451
(dp452
g391
(lp453
I91
asg393
I00
sg394
I00
sg395
(lp454
sg13
g5
sg397
I00
sg398
I28
sbI28
sg2
(g388
g4
NtRp455
(dp456
g391
(lp457
I109
asg393
I01
sg394
I01
sg395
(lp458
sg13
g5
sg397
I00
sg398
I108
sbI51
sg2
(g388
g4
NtRp459
(dp460
g391
(lp461
I65
asg393
I01
sg394
I01
sg395
(lp462
sg13
g5
sg397
I00
sg398
I64
sbI46
sg2
(g388
g4
NtRp463
(dp464
g391
(lp465
I69
asg393
I00
sg394
I00
sg395
(lp466
I71
asg13
g5
sg397
I00
sg398
I13
sbI13
sg2
(g388
g4
NtRp467
(dp468
g391
(lp469
I92
asg393
I00
sg394
I00
sg395
(lp470
sg13
g5
sg397
I00
sg398
I29
sbI29
sg2
(g388
g4
NtRp471
(dp472
g391
(lp473
I60
asg393
I00
sg394
I00
sg395
(lp474
I72
asg13
g5
sg397
I00
sg398
I14
sbI14
sg2
(g388
g4
NtRp475
(dp476
g391
(lp477
I49
asg393
I00
sg394
I00
sg395
(lp478
I52
aI53
asg13
g5
sg397
I00
sg398
I4
sbI4
sg2
(g388
g4
NtRp479
(dp480
g391
(lp481
I93
asg393
I00
sg394
I00
sg395
(lp482
I95
asg13
g5
sg397
I00
sg398
I30
sbI30
sg2
(g388
g4
NtRp483
(dp484
g391
(lp485
I72
aI99
asg393
I00
sg394
I00
sg395
(lp486
I73
asg13
g5
sg397
I00
sg398
I15
sbI15
sg2
(g388
g4
NtRp487
(dp488
g391
(lp489
I105
asg393
I00
sg394
I00
sg395
(lp490
sg13
g5
sg397
I00
sg398
I41
sbI41
sg2
(g388
g4
NtRp491
(dp492
g391
(lp493
I95
asg393
I00
sg394
I00
sg395
(lp494
sg13
g5
sg397
I00
sg398
I31
sbI31
sg2
(g388
g4
NtRp495
(dp496
g391
(lp497
I73
asg393
I00
sg394
I00
sg395
(lp498
I75
asg13
g5
sg397
I00
sg398
I16
sbI16
sg2
(g388
g4
NtRp499
(dp500
g391
(lp501
I86
asg393
I00
sg394
I00
sg395
(lp502
sg13
g5
sg397
I00
sg398
I23
sbI23
sg2
(g388
g4
NtRp503
(dp504
g391
(lp505
I84
asg393
I00
sg394
I00
sg395
(lp506
I96
aI97
aI98
aI99
asg13
g5
sg397
I00
sg398
I32
sbI32
sg2
(g388
g4
NtRp507
(dp508
g391
(lp509
I71
asg393
I01
sg394
I01
sg395
(lp510
sg13
g5
sg397
I00
sg398
I70
sbI48
sg2
(g388
g4
NtRp511
(dp512
g391
(lp513
I61
asg393
I00
sg394
I00
sg395
(lp514
I76
asg13
g5
sg397
I00
sg398
I17
sbI17
sg2
(g388
g4
NtRp515
(dp516
g391
(lp517
I107
asg393
I00
sg394
I00
sg395
(lp518
I109
asg13
g5
sg397
I00
sg398
I44
sbI44
sg2
(g388
g4
NtRp519
(dp520
g391
(lp521
I96
asg393
I00
sg394
I00
sg395
(lp522
sg13
g5
sg397
I00
sg398
I33
sbI33
sg2
(g388
g4
NtRp523
(dp524
g391
(lp525
I48
asg393
I00
sg394
I00
sg395
(lp526
sg13
g5
sg397
I00
sg398
I2
sbI2
sg2
(g388
g4
NtRp527
(dp528
g391
(lp529
I76
aI104
asg393
I00
sg394
I00
sg395
(lp530
I77
asg13
g5
sg397
I00
sg398
I18
sbI18
sg2
(g388
g4
NtRp531
(dp532
g391
(lp533
I97
asg393
I00
sg394
I00
sg395
(lp534
sg13
g5
sg397
I00
sg398
I34
sbI34
sg2
(g388
g4
NtRp535
(dp536
g391
(lp537
I77
asg393
I00
sg394
I00
sg395
(lp538
I79
asg13
g5
sg397
I00
sg398
I19
sbI19
sg2
(g388
g4
NtRp539
(dp540
g391
(lp541
I98
asg393
I00
sg394
I00
sg395
(lp542
I100
asg13
g5
sg397
I00
sg398
I35
sbI35
sg2
(g388
g4
NtRp543
(dp544
g391
(lp545
I51
asg393
I00
sg394
I00
sg395
(lp546
I80
aI81
asg13
g5
sg397
I00
sg398
I20
sbI20
sg2
(g388
g4
NtRp547
(dp548
g391
(lp549
I81
asg393
I00
sg394
I00
sg395
(lp550
I82
aI83
aI84
aI85
asg13
g5
sg397
I00
sg398
I21
sbI21
sg2
(g388
g4
NtRp551
(dp552
g391
(lp553
I100
asg393
I00
sg394
I00
sg395
(lp554
sg13
g5
sg397
I00
sg398
I36
sbI36
sg2
(g388
g4
NtRp555
(dp556
g391
(lp557
I53
asg393
I00
sg394
I00
sg395
(lp558
I55
asg13
g5
sg397
I00
sg398
I5
sbI5
sg2
(g388
g4
NtRp559
(dp560
g391
(lp561
I47
aI52
aI56
aI80
asg393
I00
sg394
I00
sg395
(lp562
I106
asg13
g5
sg397
I00
sg398
I42
sbI42
sg2
(g388
g4
NtRp563
(dp564
g391
(lp565
I85
asg393
I00
sg394
I00
sg395
(lp566
I101
aI102
aI103
aI104
asg13
g5
sg397
I00
sg398
I37
sbI37
sg2
(g388
g4
NtRp567
(dp568
g391
(lp569
I50
asg393
I00
sg394
I00
sg395
(lp570
I56
aI57
asg13
g5
sg397
I00
sg398
I6
sbI6
sg2
(g388
g4
NtRp571
(dp572
g391
(lp573
I87
asg393
I00
sg394
I00
sg395
(lp574
sg13
g5
sg397
I00
sg398
I24
sbI24
sg2
(g388
g4
NtRp575
(dp576
g391
(lp577
I101
asg393
I00
sg394
I00
sg395
(lp578
sg13
g5
sg397
I00
sg398
I38
sbI38
sg2
(g388
g4
NtRp579
(dp580
g391
(lp581
I57
asg393
I00
sg394
I00
sg395
(lp582
I58
aI59
aI60
aI61
asg13
g5
sg397
I00
sg398
I7
sbI7
sg2
(g388
g4
NtRp583
(dp584
g391
(lp585
I102
asg393
I00
sg394
I00
sg395
(lp586
sg13
g5
sg397
I00
sg398
I39
sbI39
sg2
(g388
g4
NtRp587
(dp588
g391
(lp589
I55
asg393
I01
sg394
I00
sg395
(lp590
sg13
g5
sg397
I00
sg398
I54
sbI45
sg2
(g388
g4
NtRp591
(dp592
g391
(lp593
I75
asg393
I01
sg394
I01
sg395
(lp594
sg13
g5
sg397
I00
sg398
I74
sbI49
sg2
(g388
g4
NtRp595
(dp596
g391
(lp597
I58
asg393
I00
sg394
I00
sg395
(lp598
I62
asg13
g5
sg397
I00
sg398
I8
sbI8
sg2
(g388
g4
NtRp599
(dp600
g391
(lp601
I46
asg393
I00
sg394
I00
sg395
(lp602
I49
aI50
aI51
asg13
g5
sg397
I00
sg398
I3
sbI3
ssS'nodes'
p603
(lp604
g443
ag447
ag523
ag599
ag475
ag555
ag567
ag579
ag595
ag399
ag411
ag423
ag435
ag463
ag471
ag483
ag495
ag511
ag527
ag535
ag543
ag547
ag415
ag499
ag571
ag403
ag419
ag439
ag451
ag467
ag479
ag491
ag503
ag519
ag531
ag539
ag551
ag563
ag575
ag583
ag389
ag487
ag559
ag431
ag515
ag587
ag459
ag407
ag507
ag591
ag427
ag455
asS'root'
p605
I0
sba.